; Function Attrs: mustprogress nounwind uwtable
define hidden void @hermesDependencies_free(ptr noundef %res) local_unnamed_addr #0 {
entry:
  %isnull = icmp eq ptr %res, null
  br i1 %isnull, label %delete.end, label %delete.notnull

delete.notnull:                                   ; preds = %entry
  %deps_.i = getelementptr inbounds i8, ptr %res, i64 32
  tail call void @_ZNSt7__cxx1112basic_stringIcSt11char_traitsIcESaIcEED1Ev(ptr noundef nonnull align 8 dereferenceable(32) %deps_.i) #12
  tail call void @_ZNSt7__cxx1112basic_stringIcSt11char_traitsIcESaIcEED1Ev(ptr noundef nonnull align 8 dereferenceable(32) %res) #12
  tail call void @_ZdlPv(ptr noundef nonnull %res) #14
  br label %delete.end

delete.end:                                       ; preds = %delete.notnull, %entry
  ret void
}